target datalayout = "e-m:e-p270:32:32-p271:32:32-p272:64:64-i64:64-i128:128-f80:128-n8:16:32:64-S128"
target triple = "x86_64-pc-linux-gnu"

%struct.AVCodecContext = type { ptr, i32, i32, ptr, i32, i32, ptr, ptr, ptr, i64, i32, i32, ptr, i32, %struct.AVRational, %struct.AVRational, %struct.AVRational, i32, i32, i32, i32, i32, %struct.AVRational, i32, i32, i32, i32, i32, i32, i32, i32, i32, i32, i32, ptr, ptr, i32, float, float, float, float, float, float, float, float, float, i32, i32, i32, i32, i32, i32, i32, i32, i32, i32, i32, i32, ptr, ptr, ptr, i32, i32, i32, i32, i32, i32, i32, i32, i32, i32, %struct.AVChannelLayout, i32, i32, i32, i32, i32, i32, i32, i32, ptr, i32, i32, i32, float, float, i32, i32, i32, i32, i32, ptr, i64, i64, float, float, i32, i32, ptr, ptr, i32, i32, i32, i32, i32, ptr, ptr, ptr, ptr, i32, i32, [8 x i64], i32, i32, i32, i32, i32, i32, i32, ptr, ptr, i32, i32, i32, i32, i32, i32, i32, i32, i32, i32, ptr, ptr, i32, i32, ptr, ptr, ptr, ptr, i32, i32, i64, i32, i32, i64, ptr, i64, ptr, i32, ptr, i32 }
%struct.AVRational = type { i32, i32 }
%struct.AVChannelLayout = type { i32, i32, %union.anon.0, ptr }
%union.anon.0 = type { i64 }
%struct.vp56_context = type { ptr, %struct.H264ChromaContext, %struct.HpelDSPContext, %struct.VideoDSPContext, %struct.VP3DSPContext, %struct.VP56DSPContext, [64 x i8], [4 x ptr], ptr, ptr, %struct.VPXRangeCoder, %struct.VPXRangeCoder, ptr, i32, i32, [4 x i32], [4 x i32], i32, i32, [6 x i32], i32, i16, i16, ptr, [4 x %struct.VP56RefDc], [6 x i32], [3 x [3 x i16]], i32, ptr, [8 x i8], [6 x [64 x i16]], [6 x i32], ptr, [6 x %struct.VP56mv], [2 x %struct.VP56mv], i32, i32, i32, i32, i32, i32, i32, [4 x i8], [256 x i32], [4 x [64 x i8]], [4 x i8], i32, i32, i32, i32, i32, i32, i32, [4 x i64], ptr, ptr, ptr, ptr, ptr, ptr, ptr, ptr, ptr, ptr, %struct.VP56Model, i32, %struct.GetBitContext, [2 x %struct.VLC], [2 x %struct.VLC], [2 x [3 x [4 x %struct.VLC]]], [2 x [2 x i32]], i32, i32 }
%struct.H264ChromaContext = type { [4 x ptr], [4 x ptr] }
%struct.HpelDSPContext = type { [4 x [4 x ptr]], [4 x [4 x ptr]], [4 x [4 x ptr]], [4 x ptr] }
%struct.VideoDSPContext = type { ptr, ptr }
%struct.VP3DSPContext = type { ptr, ptr, ptr, ptr, ptr, ptr, ptr, ptr }
%struct.VP56DSPContext = type { ptr, ptr, ptr }
%struct.VPXRangeCoder = type { i32, i32, ptr, ptr, i32, i32 }
%struct.VP56RefDc = type { i8, i32, i16 }
%struct.VP56mv = type { i16, i16 }
%struct.VP56Model = type { [64 x i8], [64 x i8], [64 x i8], [2 x i8], [2 x i8], [2 x [2 x i8]], [2 x [7 x i8]], [2 x [8 x i8]], [2 x [11 x i8]], [2 x [3 x [6 x [11 x i8]]]], [2 x [3 x [3 x [6 x [5 x i8]]]]], [2 x [36 x [5 x i8]]], [2 x [14 x i8]], [3 x [10 x [10 x i8]]], [3 x [10 x [2 x i8]]] }
%struct.GetBitContext = type { ptr, ptr, i32, i32, i32 }
%struct.VLC = type { i32, ptr, i32, i32 }

; Function Attrs: cold nounwind optsize uwtable
define internal i32 @vp6_decode_init(ptr noundef %0) #0 {
  %2 = alloca i32, align 4
  %3 = alloca ptr, align 8
  %4 = alloca ptr, align 8
  %5 = alloca i32, align 4
  %6 = alloca i32, align 4
  store ptr %0, ptr %3, align 8, !tbaa !4
  call void @llvm.lifetime.start.p0(i64 8, ptr %4) #9
  %7 = load ptr, ptr %3, align 8, !tbaa !4
  %8 = getelementptr inbounds nuw %struct.AVCodecContext, ptr %7, i32 0, i32 6
  %9 = load ptr, ptr %8, align 8, !tbaa !9
  store ptr %9, ptr %4, align 8, !tbaa !29
  call void @llvm.lifetime.start.p0(i64 4, ptr %5) #9
  %10 = load ptr, ptr %3, align 8, !tbaa !4
  %11 = load ptr, ptr %4, align 8, !tbaa !29
  %12 = load ptr, ptr %3, align 8, !tbaa !4
  %13 = getelementptr inbounds nuw %struct.AVCodecContext, ptr %12, i32 0, i32 4
  %14 = load i32, ptr %13, align 8, !tbaa !31
  %15 = icmp eq i32 %14, 91
  %16 = zext i1 %15 to i32
  %17 = load ptr, ptr %3, align 8, !tbaa !4
  %18 = getelementptr inbounds nuw %struct.AVCodecContext, ptr %17, i32 0, i32 4
  %19 = load i32, ptr %18, align 8, !tbaa !31
  %20 = icmp eq i32 %19, 106
  %21 = zext i1 %20 to i32
  %22 = call i32 @vp6_decode_init_context(ptr noundef %10, ptr noundef %11, i32 noundef %16, i32 noundef %21) #10
  store i32 %22, ptr %5, align 4, !tbaa !32
  %23 = load i32, ptr %5, align 4, !tbaa !32
  %24 = icmp slt i32 %23, 0
  br i1 %24, label %25, label %27

25:                                               ; preds = %1
  %26 = load i32, ptr %5, align 4, !tbaa !32
  store i32 %26, ptr %2, align 4
  store i32 1, ptr %6, align 4
  br label %56

27:                                               ; preds = %1
  %28 = load ptr, ptr %4, align 8, !tbaa !29
  %29 = getelementptr inbounds nuw %struct.vp56_context, ptr %28, i32 0, i32 46
  %30 = load i32, ptr %29, align 4, !tbaa !33
  %31 = icmp ne i32 %30, 0
  br i1 %31, label %32, label %55

32:                                               ; preds = %27
  %33 = load ptr, ptr %4, align 8, !tbaa !29
  %34 = getelementptr inbounds %struct.vp56_context, ptr %33, i64 1
  %35 = load ptr, ptr %4, align 8, !tbaa !29
  %36 = getelementptr inbounds nuw %struct.vp56_context, ptr %35, i32 0, i32 62
  store ptr %34, ptr %36, align 16, !tbaa !48
  %37 = load ptr, ptr %3, align 8, !tbaa !4
  %38 = load ptr, ptr %4, align 8, !tbaa !29
  %39 = getelementptr inbounds nuw %struct.vp56_context, ptr %38, i32 0, i32 62
  %40 = load ptr, ptr %39, align 16, !tbaa !48
  %41 = load ptr, ptr %4, align 8, !tbaa !29
  %42 = getelementptr inbounds nuw %struct.vp56_context, ptr %41, i32 0, i32 50
  %43 = load i32, ptr %42, align 4, !tbaa !49
  %44 = icmp eq i32 %43, -1
  %45 = zext i1 %44 to i32
  %46 = load ptr, ptr %4, align 8, !tbaa !29
  %47 = getelementptr inbounds nuw %struct.vp56_context, ptr %46, i32 0, i32 46
  %48 = load i32, ptr %47, align 4, !tbaa !33
  %49 = call i32 @vp6_decode_init_context(ptr noundef %37, ptr noundef %40, i32 noundef %45, i32 noundef %48) #10
  store i32 %49, ptr %5, align 4, !tbaa !32
  %50 = load i32, ptr %5, align 4, !tbaa !32
  %51 = icmp slt i32 %50, 0
  br i1 %51, label %52, label %54

52:                                               ; preds = %32
  %53 = load i32, ptr %5, align 4, !tbaa !32
  store i32 %53, ptr %2, align 4
  store i32 1, ptr %6, align 4
  br label %56

54:                                               ; preds = %32
  br label %55

55:                                               ; preds = %54, %27
  store i32 0, ptr %2, align 4
  store i32 1, ptr %6, align 4
  br label %56

56:                                               ; preds = %55, %52, %25
  call void @llvm.lifetime.end.p0(i64 4, ptr %5) #9
  call void @llvm.lifetime.end.p0(i64 8, ptr %4) #9
  %57 = load i32, ptr %2, align 4
  ret i32 %57
}