; Function Attrs: cold nounwind optsize uwtable
define internal range(i32 -2147483648, 1) i32 @vp6_decode_init(ptr noundef %0) #0 {
  %2 = getelementptr inbounds nuw i8, ptr %0, i64 32
  %3 = load ptr, ptr %2, align 8, !tbaa !4
  %4 = getelementptr inbounds nuw i8, ptr %0, i64 24
  %5 = load i32, ptr %4, align 8, !tbaa !27
  %6 = icmp eq i32 %5, 91
  %7 = zext i1 %6 to i32
  %8 = icmp eq i32 %5, 106
  %9 = zext i1 %8 to i32
  %10 = tail call fastcc i32 @vp6_decode_init_context(ptr noundef %0, ptr noundef %3, i32 noundef %7, i32 noundef %9) #10
  %11 = icmp slt i32 %10, 0
  br i1 %11, label %25, label %12

12:                                               ; preds = %1
  %13 = getelementptr inbounds nuw i8, ptr %3, i64 3124
  %14 = load i32, ptr %13, align 4, !tbaa !28
  %.not = icmp eq i32 %14, 0
  br i1 %.not, label %24, label %15

15:                                               ; preds = %12
  %16 = getelementptr inbounds nuw i8, ptr %3, i64 5936
  %17 = getelementptr inbounds nuw i8, ptr %3, i64 3248
  store ptr %16, ptr %17, align 16, !tbaa !45
  %18 = getelementptr inbounds nuw i8, ptr %3, i64 3140
  %19 = load i32, ptr %18, align 4, !tbaa !46
  %20 = icmp eq i32 %19, -1
  %21 = zext i1 %20 to i32
  %22 = tail call fastcc i32 @vp6_decode_init_context(ptr noundef nonnull %0, ptr noundef nonnull %16, i32 noundef %21, i32 noundef %14) #10
  %23 = icmp slt i32 %22, 0
  br i1 %23, label %25, label %24

24:                                               ; preds = %15, %12
  br label %25

25:                                               ; preds = %15, %1, %24
  %.0 = phi i32 [ 0, %24 ], [ %10, %1 ], [ %22, %15 ]
  ret i32 %.0
}